; ModuleID = '51/39.c'
source_filename = "51/39.c"
target datalayout = "e-m:e-p270:32:32-p271:32:32-p272:64:64-i64:64-f80:128-n8:16:32:64-S128"
target triple = "x86_64-pc-linux-gnu"

@.str = private unnamed_addr constant [6 x i8] c"%d\0A%s\00", align 1
@.str.1 = private unnamed_addr constant [2 x i8] zeroinitializer, align 1
@.str.2 = private unnamed_addr constant [3 x i8] c"NO\00", align 1
@.str.3 = private unnamed_addr constant [4 x i8] c"%d\0A\00", align 1
@.str.4 = private unnamed_addr constant [4 x i8] c"%s\0A\00", align 1

; Function Attrs: noinline nounwind uwtable
define dso_local i32 @main() #0 {
  %1 = alloca i32, align 4
  %2 = alloca i32, align 4
  %3 = alloca i32, align 4
  %4 = alloca i32, align 4
  %5 = alloca [505 x i32], align 16
  %6 = alloca i32, align 4
  %7 = alloca i32, align 4
  %8 = alloca [505 x i8], align 16
  %9 = alloca [505 x [7 x i8]], align 16
  %10 = alloca [505 x [7 x i8]], align 16
  %11 = alloca i32, align 4
  store i32 0, i32* %1, align 4
  %12 = bitcast [505 x i32]* %5 to i8*
  call void @llvm.memset.p0i8.i64(i8* align 16 %12, i8 0, i64 2020, i1 false)
  store i32 0, i32* %7, align 4
  %13 = getelementptr inbounds [505 x i8], [505 x i8]* %8, i64 0, i64 0
  %14 = call i32 (i8*, ...) @__isoc99_scanf(i8* getelementptr inbounds ([6 x i8], [6 x i8]* @.str, i64 0, i64 0), i32* %2, i8* %13)
  store i32 0, i32* %3, align 4
  br label %15

15:                                               ; preds = %53, %0
  %16 = load i32, i32* %3, align 4
  %17 = load i32, i32* %2, align 4
  %18 = add nsw i32 %16, %17
  %19 = sub nsw i32 %18, 1
  %20 = sext i32 %19 to i64
  %21 = getelementptr inbounds [505 x i8], [505 x i8]* %8, i64 0, i64 %20
  %22 = load i8, i8* %21, align 1
  %23 = sext i8 %22 to i32
  %24 = icmp ne i32 %23, 0
  br i1 %24, label %25, label %56

25:                                               ; preds = %15
  store i32 0, i32* %4, align 4
  br label %26

26:                                               ; preds = %43, %25
  %27 = load i32, i32* %4, align 4
  %28 = load i32, i32* %2, align 4
  %29 = icmp slt i32 %27, %28
  br i1 %29, label %30, label %46

30:                                               ; preds = %26
  %31 = load i32, i32* %3, align 4
  %32 = load i32, i32* %4, align 4
  %33 = add nsw i32 %31, %32
  %34 = sext i32 %33 to i64
  %35 = getelementptr inbounds [505 x i8], [505 x i8]* %8, i64 0, i64 %34
  %36 = load i8, i8* %35, align 1
  %37 = load i32, i32* %3, align 4
  %38 = sext i32 %37 to i64
  %39 = getelementptr inbounds [505 x [7 x i8]], [505 x [7 x i8]]* %9, i64 0, i64 %38
  %40 = load i32, i32* %4, align 4
  %41 = sext i32 %40 to i64
  %42 = getelementptr inbounds [7 x i8], [7 x i8]* %39, i64 0, i64 %41
  store i8 %36, i8* %42, align 1
  br label %43

43:                                               ; preds = %30
  %44 = load i32, i32* %4, align 4
  %45 = add nsw i32 %44, 1
  store i32 %45, i32* %4, align 4
  br label %26

46:                                               ; preds = %26
  %47 = load i32, i32* %3, align 4
  %48 = sext i32 %47 to i64
  %49 = getelementptr inbounds [505 x [7 x i8]], [505 x [7 x i8]]* %9, i64 0, i64 %48
  %50 = load i32, i32* %2, align 4
  %51 = sext i32 %50 to i64
  %52 = getelementptr inbounds [7 x i8], [7 x i8]* %49, i64 0, i64 %51
  store i8 0, i8* %52, align 1
  br label %53

53:                                               ; preds = %46
  %54 = load i32, i32* %3, align 4
  %55 = add nsw i32 %54, 1
  store i32 %55, i32* %3, align 4
  br label %15

56:                                               ; preds = %15
  %57 = getelementptr inbounds [505 x i8], [505 x i8]* %8, i64 0, i64 0
  %58 = call i64 @strlen(i8* %57) #5
  %59 = load i32, i32* %2, align 4
  %60 = sext i32 %59 to i64
  %61 = sub i64 %58, %60
  %62 = add i64 %61, 1
  %63 = trunc i64 %62 to i32
  store i32 %63, i32* %6, align 4
  store i32 0, i32* %3, align 4
  br label %64

64:                                               ; preds = %123, %56
  %65 = load i32, i32* %3, align 4
  %66 = load i32, i32* %6, align 4
  %67 = icmp slt i32 %65, %66
  br i1 %67, label %68, label %126

68:                                               ; preds = %64
  %69 = load i32, i32* %3, align 4
  %70 = sext i32 %69 to i64
  %71 = getelementptr inbounds [505 x [7 x i8]], [505 x [7 x i8]]* %9, i64 0, i64 %70
  %72 = getelementptr inbounds [7 x i8], [7 x i8]* %71, i64 0, i64 0
  %73 = call i32 @strcmp(i8* %72, i8* getelementptr inbounds ([2 x i8], [2 x i8]* @.str.1, i64 0, i64 0)) #5
  %74 = icmp ne i32 %73, 0
  br i1 %74, label %75, label %87

75:                                               ; preds = %68
  %76 = load i32, i32* %7, align 4
  %77 = sext i32 %76 to i64
  %78 = getelementptr inbounds [505 x [7 x i8]], [505 x [7 x i8]]* %10, i64 0, i64 %77
  %79 = getelementptr inbounds [7 x i8], [7 x i8]* %78, i64 0, i64 0
  %80 = load i32, i32* %3, align 4
  %81 = sext i32 %80 to i64
  %82 = getelementptr inbounds [505 x [7 x i8]], [505 x [7 x i8]]* %9, i64 0, i64 %81
  %83 = getelementptr inbounds [7 x i8], [7 x i8]* %82, i64 0, i64 0
  %84 = call i8* @strcpy(i8* %79, i8* %83) #6
  %85 = load i32, i32* %7, align 4
  %86 = add nsw i32 %85, 1
  store i32 %86, i32* %7, align 4
  br label %87

87:                                               ; preds = %75, %68
  %88 = load i32, i32* %3, align 4
  %89 = add nsw i32 %88, 1
  store i32 %89, i32* %4, align 4
  br label %90

90:                                               ; preds = %119, %87
  %91 = load i32, i32* %4, align 4
  %92 = load i32, i32* %6, align 4
  %93 = icmp slt i32 %91, %92
  br i1 %93, label %94, label %122

94:                                               ; preds = %90
  %95 = load i32, i32* %7, align 4
  %96 = sub nsw i32 %95, 1
  %97 = sext i32 %96 to i64
  %98 = getelementptr inbounds [505 x [7 x i8]], [505 x [7 x i8]]* %10, i64 0, i64 %97
  %99 = getelementptr inbounds [7 x i8], [7 x i8]* %98, i64 0, i64 0
  %100 = load i32, i32* %4, align 4
  %101 = sext i32 %100 to i64
  %102 = getelementptr inbounds [505 x [7 x i8]], [505 x [7 x i8]]* %9, i64 0, i64 %101
  %103 = getelementptr inbounds [7 x i8], [7 x i8]* %102, i64 0, i64 0
  %104 = call i32 @strcmp(i8* %99, i8* %103) #5
  %105 = icmp eq i32 %104, 0
  br i1 %105, label %106, label %118

106:                                              ; preds = %94
  %107 = load i32, i32* %7, align 4
  %108 = sub nsw i32 %107, 1
  %109 = sext i32 %108 to i64
  %110 = getelementptr inbounds [505 x i32], [505 x i32]* %5, i64 0, i64 %109
  %111 = load i32, i32* %110, align 4
  %112 = add nsw i32 %111, 1
  store i32 %112, i32* %110, align 4
  %113 = load i32, i32* %4, align 4
  %114 = sext i32 %113 to i64
  %115 = getelementptr inbounds [505 x [7 x i8]], [505 x [7 x i8]]* %9, i64 0, i64 %114
  %116 = getelementptr inbounds [7 x i8], [7 x i8]* %115, i64 0, i64 0
  %117 = call i8* @strcpy(i8* %116, i8* getelementptr inbounds ([2 x i8], [2 x i8]* @.str.1, i64 0, i64 0)) #6
  br label %118

118:                                              ; preds = %106, %94
  br label %119

119:                                              ; preds = %118
  %120 = load i32, i32* %4, align 4
  %121 = add nsw i32 %120, 1
  store i32 %121, i32* %4, align 4
  br label %90

122:                                              ; preds = %90
  br label %123

123:                                              ; preds = %122
  %124 = load i32, i32* %3, align 4
  %125 = add nsw i32 %124, 1
  store i32 %125, i32* %3, align 4
  br label %64

126:                                              ; preds = %64
  store i32 0, i32* %11, align 4
  store i32 0, i32* %3, align 4
  br label %127

127:                                              ; preds = %144, %126
  %128 = load i32, i32* %3, align 4
  %129 = load i32, i32* %7, align 4
  %130 = icmp slt i32 %128, %129
  br i1 %130, label %131, label %147

131:                                              ; preds = %127
  %132 = load i32, i32* %3, align 4
  %133 = sext i32 %132 to i64
  %134 = getelementptr inbounds [505 x i32], [505 x i32]* %5, i64 0, i64 %133
  %135 = load i32, i32* %134, align 4
  %136 = load i32, i32* %11, align 4
  %137 = icmp sgt i32 %135, %136
  br i1 %137, label %138, label %143

138:                                              ; preds = %131
  %139 = load i32, i32* %3, align 4
  %140 = sext i32 %139 to i64
  %141 = getelementptr inbounds [505 x i32], [505 x i32]* %5, i64 0, i64 %140
  %142 = load i32, i32* %141, align 4
  store i32 %142, i32* %11, align 4
  br label %143

143:                                              ; preds = %138, %131
  br label %144

144:                                              ; preds = %143
  %145 = load i32, i32* %3, align 4
  %146 = add nsw i32 %145, 1
  store i32 %146, i32* %3, align 4
  br label %127

147:                                              ; preds = %127
  %148 = load i32, i32* %11, align 4
  %149 = add nsw i32 %148, 1
  %150 = icmp eq i32 %149, 1
  br i1 %150, label %151, label %153

151:                                              ; preds = %147
  %152 = call i32 (i8*, ...) @printf(i8* getelementptr inbounds ([3 x i8], [3 x i8]* @.str.2, i64 0, i64 0))
  store i32 0, i32* %1, align 4
  br label %180

153:                                              ; preds = %147
  %154 = load i32, i32* %11, align 4
  %155 = add nsw i32 %154, 1
  %156 = call i32 (i8*, ...) @printf(i8* getelementptr inbounds ([4 x i8], [4 x i8]* @.str.3, i64 0, i64 0), i32 %155)
  br label %157

157:                                              ; preds = %153
  store i32 0, i32* %3, align 4
  br label %158

158:                                              ; preds = %176, %157
  %159 = load i32, i32* %3, align 4
  %160 = load i32, i32* %7, align 4
  %161 = icmp slt i32 %159, %160
  br i1 %161, label %162, label %179

162:                                              ; preds = %158
  %163 = load i32, i32* %3, align 4
  %164 = sext i32 %163 to i64
  %165 = getelementptr inbounds [505 x i32], [505 x i32]* %5, i64 0, i64 %164
  %166 = load i32, i32* %165, align 4
  %167 = load i32, i32* %11, align 4
  %168 = icmp eq i32 %166, %167
  br i1 %168, label %169, label %175

169:                                              ; preds = %162
  %170 = load i32, i32* %3, align 4
  %171 = sext i32 %170 to i64
  %172 = getelementptr inbounds [505 x [7 x i8]], [505 x [7 x i8]]* %10, i64 0, i64 %171
  %173 = getelementptr inbounds [7 x i8], [7 x i8]* %172, i64 0, i64 0
  %174 = call i32 (i8*, ...) @printf(i8* getelementptr inbounds ([4 x i8], [4 x i8]* @.str.4, i64 0, i64 0), i8* %173)
  br label %175

175:                                              ; preds = %169, %162
  br label %176

176:                                              ; preds = %175
  %177 = load i32, i32* %3, align 4
  %178 = add nsw i32 %177, 1
  store i32 %178, i32* %3, align 4
  br label %158

179:                                              ; preds = %158
  store i32 0, i32* %1, align 4
  br label %180

180:                                              ; preds = %179, %151
  %181 = load i32, i32* %1, align 4
  ret i32 %181
}

; Function Attrs: argmemonly nounwind willreturn
declare void @llvm.memset.p0i8.i64(i8* nocapture writeonly, i8, i64, i1 immarg) #1

declare dso_local i32 @__isoc99_scanf(i8*, ...) #2

; Function Attrs: nounwind readonly
declare dso_local i64 @strlen(i8*) #3

; Function Attrs: nounwind readonly
declare dso_local i32 @strcmp(i8*, i8*) #3

; Function Attrs: nounwind
declare dso_local i8* @strcpy(i8*, i8*) #4

declare dso_local i32 @printf(i8*, ...) #2


!llvm.module.flags = !{!0}
!llvm.ident = !{!1}

!0 = !{i32 1, !"wchar_size", i32 4}
!1 = !{!"clang version 10.0.0-4ubuntu1 "}
